; Function Attrs: mustprogress uwtable
define hidden void @_ZN4cvc58internal6theory11quantifiers10TermGenEnv10getFreeVarENS0_8TypeNodeEj(ptr dead_on_unwind noalias writable sret(%"class.cvc5::internal::NodeTemplate.3") align 8 %0, ptr noundef nonnull readonly align 8 captures(none) dereferenceable(488) %1, ptr noundef readonly captures(none) %2, i32 noundef %3) local_unnamed_addr #3 align 2 personality ptr @__gxx_personality_v0 {
  %5 = alloca %"class.cvc5::internal::TypeNode", align 8
  %6 = load ptr, ptr %1, align 8, !tbaa !826
  %7 = load ptr, ptr %2, align 8, !tbaa !335
  store ptr %7, ptr %5, align 8, !tbaa !335
  %8 = load i64, ptr %7, align 8
  %9 = lshr i64 %8, 40
  %10 = trunc nuw nsw i64 %9 to i32
  %11 = and i32 %10, 1048575
  %12 = icmp samesign ult i32 %11, 1048574
  br i1 %12, label %13, label %18, !prof !33

13:                                               ; preds = %4
  %14 = add i64 %8, 1099511627776
  %15 = and i64 %14, 1152920405095219200
  %16 = and i64 %8, -1152920405095219201
  %17 = or disjoint i64 %15, %16
  store i64 %17, ptr %7, align 8
  br label %_ZN4cvc58internal8TypeNodeC2ERKS1_.exit

18:                                               ; preds = %4
  %19 = icmp eq i32 %11, 1048574
  br i1 %19, label %20, label %_ZN4cvc58internal8TypeNodeC2ERKS1_.exit, !prof !15

20:                                               ; preds = %18
  %21 = or i64 %8, 1152920405095219200
  store i64 %21, ptr %7, align 8
  tail call void @_ZN4cvc58internal4expr9NodeValue20markRefCountMaxedOutEv(ptr noundef nonnull align 8 dereferenceable(24) %7)
  br label %_ZN4cvc58internal8TypeNodeC2ERKS1_.exit

_ZN4cvc58internal8TypeNodeC2ERKS1_.exit:          ; preds = %13, %18, %20
  invoke void @_ZN4cvc58internal6theory11quantifiers19ConjectureGenerator10getFreeVarENS0_8TypeNodeEj(ptr dead_on_unwind writable sret(%"class.cvc5::internal::NodeTemplate.3") align 8 %0, ptr noundef nonnull align 8 dereferenceable(4072) %6, ptr noundef nonnull %5, i32 noundef %3)
          to label %22 unwind label %35

22:                                               ; preds = %_ZN4cvc58internal8TypeNodeC2ERKS1_.exit
  %23 = load i64, ptr %7, align 8
  %24 = and i64 %23, 1152920405095219200
  %.not.i.i = icmp eq i64 %24, 1152920405095219200
  br i1 %.not.i.i, label %_ZN4cvc58internal8TypeNodeD2Ev.exit, label %25, !prof !15

25:                                               ; preds = %22
  %26 = add i64 %23, 1152920405095219200
  %27 = and i64 %26, 1152920405095219200
  %28 = and i64 %23, -1152920405095219201
  %29 = or disjoint i64 %27, %28
  store i64 %29, ptr %7, align 8
  %30 = icmp eq i64 %27, 0
  br i1 %30, label %31, label %_ZN4cvc58internal8TypeNodeD2Ev.exit, !prof !15

31:                                               ; preds = %25
  invoke void @_ZN4cvc58internal4expr9NodeValue15markForDeletionEv(ptr noundef nonnull align 8 dereferenceable(24) %7)
          to label %_ZN4cvc58internal8TypeNodeD2Ev.exit unwind label %32

32:                                               ; preds = %31
  %33 = landingpad { ptr, i32 }
          catch ptr null
  %34 = extractvalue { ptr, i32 } %33, 0
  tail call void @__clang_call_terminate(ptr %34) #30
  unreachable

_ZN4cvc58internal8TypeNodeD2Ev.exit:              ; preds = %22, %25, %31
  ret void

35:                                               ; preds = %_ZN4cvc58internal8TypeNodeC2ERKS1_.exit
  %36 = landingpad { ptr, i32 }
          cleanup
  call void @_ZN4cvc58internal8TypeNodeD2Ev(ptr noundef nonnull align 8 dereferenceable(8) %5) #29
  resume { ptr, i32 } %36
}